target datalayout = "e-m:e-p270:32:32-p271:32:32-p272:64:64-i64:64-i128:128-f80:128-n8:16:32:64-S128"
target triple = "x86_64-pc-linux-gnu"

%"class.(anonymous namespace)::elim_uncnstr_tactic" = type { %class.tactic.base, ptr, %class.ref, %class.obj_hashtable, %class.obj_hashtable, %class.scoped_ptr, i32, i64, i32, %class.params_ref }
%class.tactic.base = type <{ %"class.user_propagator::core", i32 }>
%"class.user_propagator::core" = type { ptr }
%class.ref = type { ptr }
%class.obj_hashtable = type { %class.core_hashtable.base, [4 x i8] }
%class.core_hashtable.base = type <{ ptr, i32, i32, i32 }>
%class.scoped_ptr = type { ptr }
%class.params_ref = type { ptr }

@.str.9 = private unnamed_addr constant [11 x i8] c"max_memory\00", align 1
@.str.10 = private unnamed_addr constant [10 x i8] c"max_steps\00", align 1

; Function Attrs: inlinehint mustprogress nounwind uwtable
define linkonce_odr hidden noundef i64 @_Z18megabytes_to_bytesj(i32 noundef %0) #5 comdat {
  %2 = alloca i64, align 8
  %3 = alloca i32, align 4
  %4 = alloca i64, align 8
  %5 = alloca i64, align 8
  store i32 %0, ptr %3, align 4, !tbaa !37
  %6 = load i32, ptr %3, align 4, !tbaa !37
  %7 = icmp eq i32 %6, -1
  br i1 %7, label %8, label %9

8:                                                ; preds = %1
  store i64 -1, ptr %2, align 8
  br label %21

9:                                                ; preds = %1
  call void @llvm.lifetime.start.p0(i64 8, ptr %4) #3
  %10 = load i32, ptr %3, align 4, !tbaa !37
  %11 = zext i32 %10 to i64
  %12 = mul i64 %11, 1024
  %13 = mul i64 %12, 1024
  store i64 %13, ptr %4, align 8, !tbaa !142
  call void @llvm.lifetime.start.p0(i64 8, ptr %5) #3
  %14 = load i64, ptr %4, align 8, !tbaa !142
  store i64 %14, ptr %5, align 8, !tbaa !91
  %15 = load i64, ptr %5, align 8, !tbaa !91
  %16 = load i64, ptr %4, align 8, !tbaa !142
  %17 = icmp ne i64 %15, %16
  br i1 %17, label %18, label %19

18:                                               ; preds = %9
  store i64 -1, ptr %5, align 8, !tbaa !91
  br label %19

19:                                               ; preds = %18, %9
  %20 = load i64, ptr %5, align 8, !tbaa !91
  store i64 %20, ptr %2, align 8
  call void @llvm.lifetime.end.p0(i64 8, ptr %5) #3
  call void @llvm.lifetime.end.p0(i64 8, ptr %4) #3
  br label %21

21:                                               ; preds = %19, %8
  %22 = load i64, ptr %2, align 8
  ret i64 %22
}

; Function Attrs: mustprogress uwtable
define linkonce_odr hidden void @_ZN10params_ref6appendERKS_(ptr noundef nonnull align 8 dereferenceable(8) %0, ptr noundef nonnull align 8 dereferenceable(8) %1) #4 comdat align 2 {
  %3 = alloca ptr, align 8
  %4 = alloca ptr, align 8
  store ptr %0, ptr %3, align 8, !tbaa !8
  store ptr %1, ptr %4, align 8, !tbaa !8
  %5 = load ptr, ptr %3, align 8
  %6 = load ptr, ptr %4, align 8, !tbaa !8
  call void @_ZN10params_ref4copyERKS_(ptr noundef nonnull align 8 dereferenceable(8) %5, ptr noundef nonnull align 8 dereferenceable(8) %6)
  ret void
}

; Function Attrs: mustprogress uwtable
define internal void @_ZN12_GLOBAL__N_119elim_uncnstr_tactic11updt_paramsERK10params_ref(ptr noundef nonnull align 8 dereferenceable(120) %0, ptr noundef nonnull align 8 dereferenceable(8) %1) unnamed_addr #4 align 2 {
  %3 = alloca ptr, align 8
  %4 = alloca ptr, align 8
  store ptr %0, ptr %3, align 8, !tbaa !10
  store ptr %1, ptr %4, align 8, !tbaa !8
  %5 = load ptr, ptr %3, align 8
  %6 = getelementptr inbounds nuw %"class.(anonymous namespace)::elim_uncnstr_tactic", ptr %5, i32 0, i32 9
  %7 = load ptr, ptr %4, align 8, !tbaa !8
  call void @_ZN10params_ref6appendERKS_(ptr noundef nonnull align 8 dereferenceable(8) %6, ptr noundef nonnull align 8 dereferenceable(8) %7)
  %8 = getelementptr inbounds nuw %"class.(anonymous namespace)::elim_uncnstr_tactic", ptr %5, i32 0, i32 9
  %9 = call noundef i32 @_ZNK10params_ref8get_uintEPKcj(ptr noundef nonnull align 8 dereferenceable(8) %8, ptr noundef @.str.9, i32 noundef -1)
  %10 = call noundef i64 @_Z18megabytes_to_bytesj(i32 noundef %9)
  %11 = getelementptr inbounds nuw %"class.(anonymous namespace)::elim_uncnstr_tactic", ptr %5, i32 0, i32 7
  store i64 %10, ptr %11, align 8, !tbaa !63
  %12 = getelementptr inbounds nuw %"class.(anonymous namespace)::elim_uncnstr_tactic", ptr %5, i32 0, i32 9
  %13 = call noundef i32 @_ZNK10params_ref8get_uintEPKcj(ptr noundef nonnull align 8 dereferenceable(8) %12, ptr noundef @.str.10, i32 noundef -1)
  %14 = getelementptr inbounds nuw %"class.(anonymous namespace)::elim_uncnstr_tactic", ptr %5, i32 0, i32 8
  store i32 %13, ptr %14, align 8, !tbaa !64
  ret void
}