; Function Attrs: mustprogress uwtable
define internal void @_ZN12_GLOBAL__N_119elim_uncnstr_tactic11updt_paramsERK10params_ref(ptr noundef nonnull align 8 dereferenceable(120) %0, ptr noundef nonnull align 8 dereferenceable(8) %1) unnamed_addr #3 align 2 {
  %3 = getelementptr inbounds nuw i8, ptr %0, i64 112
  tail call void @_ZN10params_ref4copyERKS_(ptr noundef nonnull align 8 dereferenceable(8) %3, ptr noundef nonnull align 8 dereferenceable(8) %1)
  %4 = tail call noundef i32 @_ZNK10params_ref8get_uintEPKcj(ptr noundef nonnull align 8 dereferenceable(8) %3, ptr noundef nonnull @.str.9, i32 noundef -1)
  %5 = icmp eq i32 %4, -1
  %6 = zext i32 %4 to i64
  %7 = shl nuw nsw i64 %6, 20
  %.0.i = select i1 %5, i64 -1, i64 %7
  %8 = getelementptr inbounds nuw i8, ptr %0, i64 96
  store i64 %.0.i, ptr %8, align 8, !tbaa !47
  %9 = tail call noundef i32 @_ZNK10params_ref8get_uintEPKcj(ptr noundef nonnull align 8 dereferenceable(8) %3, ptr noundef nonnull @.str.10, i32 noundef -1)
  %10 = getelementptr inbounds nuw i8, ptr %0, i64 104
  store i32 %9, ptr %10, align 8, !tbaa !48
  ret void
}